Certificate:
    Data:
        Version: 3 (0x2)
        Serial Number:
            63:e0:d6:37:8d:78:32:d6:0c:73:d5:46:dc:72:1d:b9
    Signature Algorithm: sha256WithRSAEncryption
        Issuer: CN=riffin.ml
        Validity
            Not Before: Apr 24 16:35:50 2018 GMT
            Not After : Apr 21 16:35:50 2028 GMT
        Subject: CN=neil
        Subject Public Key Info:
            Public Key Algorithm: rsaEncryption
                Public-Key: (2048 bit)
                Modulus:
                    00:be:42:05:e5:ea:ad:cd:bb:c0:cc:aa:5c:2d:ec:
                    97:fd:0c:37:ae:29:97:15:b6:53:f0:71:42:71:eb:
                    79:a3:dc:9a:b8:71:38:50:65:ad:f4:bf:c2:ec:11:
                    c5:4f:4a:5a:c7:63:9f:43:9d:d6:31:ff:30:50:49:
                    55:c6:4f:60:1b:1d:e8:91:f9:9a:19:36:75:d8:5a:
                    ff:e1:7d:50:d2:5f:5e:a9:a0:e4:b9:8f:38:3c:ac:
                    0e:fd:2a:26:b8:f8:4c:d9:a6:88:98:42:74:76:1f:
                    42:70:23:06:5e:1c:5a:f6:8b:57:88:da:de:1a:11:
                    00:4d:4f:87:54:f8:e8:b3:7d:68:e0:3f:18:21:20:
                    fc:eb:05:9f:a9:b1:04:f1:65:24:b5:6e:19:ab:f9:
                    a5:c1:83:a6:6d:16:44:26:6e:d6:5a:c4:00:13:38:
                    d4:32:c4:11:4d:d1:08:3f:09:6b:58:ab:bb:9e:5d:
                    79:7c:57:b1:3a:84:58:f2:3b:c0:ac:82:97:7f:89:
                    f0:f3:86:13:3e:82:66:eb:cf:92:99:e8:24:0d:b6:
                    15:a3:da:55:40:10:ed:f8:8f:39:8f:5f:45:db:69:
                    42:ba:f4:c4:85:d3:c1:32:92:cb:2e:30:13:14:ff:
                    f9:29:21:f6:9e:ff:fc:35:03:e8:a5:4f:34:72:79:
                    d0:af
                Exponent: 65537 (0x10001)
        X509v3 extensions:
            X509v3 Basic Constraints: 
                CA:FALSE
            X509v3 Subject Key Identifier: 
                7D:85:B6:A7:A7:B8:CB:51:2D:1C:0F:87:F9:43:7F:C8:1C:EF:EB:DB
            X509v3 Authority Key Identifier: 
                keyid:22:7E:85:08:75:6F:48:9E:7C:9A:54:01:29:A9:E3:05:C8:20:BC:21
                DirName:/CN=riffin.ml
                serial:93:31:C6:12:54:28:53:1D

            X509v3 Extended Key Usage: 
                TLS Web Client Authentication
            X509v3 Key Usage: 
                Digital Signature
    Signature Algorithm: sha256WithRSAEncryption
         25:20:14:0f:ee:ae:e5:30:ad:3b:a0:93:f7:02:f3:28:44:6e:
         cb:ba:f1:82:63:7c:4e:f5:36:9f:d2:9e:c8:7e:35:d6:b5:e7:
         c5:60:95:3a:f2:c6:b4:a1:b9:74:30:e2:4e:9e:38:0a:80:77:
         47:80:d4:56:f5:4d:b3:b4:c9:bb:33:7c:de:d7:2d:a4:84:43:
         10:13:09:71:6f:bb:e7:ef:26:ca:b3:e9:61:60:ab:ee:15:2c:
         61:b5:05:11:a5:23:d1:d4:f0:6b:65:5f:cb:98:e5:20:7c:dd:
         33:a3:b7:74:3c:14:0c:d6:7c:a2:26:20:67:6e:ac:a9:6c:ca:
         2c:47:5a:78:75:9b:f3:3f:75:87:b6:90:5b:0c:28:b0:7e:a1:
         a1:d7:cb:c2:6a:24:cc:6f:cb:20:11:99:87:5a:64:60:e8:13:
         6e:25:d3:cd:1f:28:d7:8e:ff:16:10:3a:7a:93:0f:3b:ad:d3:
         e9:21:01:b7:ae:fe:9b:66:0c:ce:59:9a:fd:31:ee:2a:fc:78:
         d3:49:30:27:f2:94:b0:eb:a6:73:64:94:f3:ca:35:5b:9d:48:
         cb:93:62:b6:5c:16:ad:6e:8f:c9:2f:e9:af:83:a6:04:4c:9f:
         7c:22:dd:c0:bb:d6:37:4d:5a:e1:26:08:dc:6a:d6:37:6d:de:
         cd:24:e3:bb
-----BEGIN CERTIFICATE-----
MIIDQzCCAiugAwIBAgIQY+DWN414MtYMc9VG3HIduTANBgkqhkiG9w0BAQsFADAU
MRIwEAYDVQQDDAlyaWZmaW4ubWwwHhcNMTgwNDI0MTYzNTUwWhcNMjgwNDIxMTYz
NTUwWjAPMQ0wCwYDVQQDDARuZWlsMIIBIjANBgkqhkiG9w0BAQEFAAOCAQ8AMIIB
CgKCAQEAvkIF5eqtzbvAzKpcLeyX/Qw3rimXFbZT8HFCcet5o9yauHE4UGWt9L/C
7BHFT0pax2OfQ53WMf8wUElVxk9gGx3okfmaGTZ12Fr/4X1Q0l9eqaDkuY84PKwO
/SomuPhM2aaImEJ0dh9CcCMGXhxa9otXiNreGhEATU+HVPjos31o4D8YISD86wWf
qbEE8WUktW4Zq/mlwYOmbRZEJm7WWsQAEzjUMsQRTdEIPwlrWKu7nl15fFexOoRY
8jvArIKXf4nw84YTPoJm68+SmegkDbYVo9pVQBDt+I85j19F22lCuvTEhdPBMpLL
LjATFP/5KSH2nv/8NQPopU80cnnQrwIDAQABo4GVMIGSMAkGA1UdEwQCMAAwHQYD
VR0OBBYEFH2FtqenuMtRLRwPh/lDf8gc7+vbMEQGA1UdIwQ9MDuAFCJ+hQh1b0ie
fJpUASmp4wXIILwhoRikFjAUMRIwEAYDVQQDDAlyaWZmaW4ubWyCCQCTMcYSVChT
HTATBgNVHSUEDDAKBggrBgEFBQcDAjALBgNVHQ8EBAMCB4AwDQYJKoZIhvcNAQEL
BQADggEBACUgFA/uruUwrTugk/cC8yhEbsu68YJjfE71Np/Snsh+Nda158VglTry
xrShuXQw4k6eOAqAd0eA1Fb1TbO0ybszfN7XLaSEQxATCXFvu+fvJsqz6WFgq+4V
LGG1BRGlI9HU8GtlX8uY5SB83TOjt3Q8FAzWfKImIGdurKlsyixHWnh1m/M/dYe2
kFsMKLB+oaHXy8JqJMxvyyARmYdaZGDoE24l080fKNeO/xYQOnqTDzut0+khAbeu
/ptmDM5Zmv0x7ir8eNNJMCfylLDrpnNklPPKNVudSMuTYrZcFq1uj8kv6a+DpgRM
n3wi3cC71jdNWuEmCNxq1jdt3s0k47s=
-----END CERTIFICATE-----
